; Function Attrs: mustprogress uwtable
define void @_ZN8facebook5velox9connector22commitStrategyToStringB5cxx11ENS1_14CommitStrategyE(ptr noalias sret(%"class.std::__cxx11::basic_string") align 8 %agg.result, i32 noundef %commitStrategy) local_unnamed_addr #1 personality ptr @__gxx_personality_v0 {
entry:
  %ref.tmp = alloca %"class.std::allocator", align 1
  %ref.tmp2 = alloca %"class.std::allocator", align 1
  switch i32 %commitStrategy, label %sw.default [
    i32 0, label %sw.bb
    i32 1, label %sw.bb1
  ]

sw.bb:                                            ; preds = %entry
  call void @_ZNSaIcEC1Ev(ptr noundef nonnull align 1 dereferenceable(1) %ref.tmp) #19
  %call.i2 = invoke noundef ptr @_ZNSt7__cxx1112basic_stringIcSt11char_traitsIcESaIcEE13_M_local_dataEv(ptr noundef nonnull align 8 dereferenceable(32) %agg.result)
          to label %call.i.noexc unwind label %lpad

call.i.noexc:                                     ; preds = %sw.bb
  invoke void @_ZNSt7__cxx1112basic_stringIcSt11char_traitsIcESaIcEE12_Alloc_hiderC1EPcRKS3_(ptr noundef nonnull align 8 dereferenceable(8) %agg.result, ptr noundef %call.i2, ptr noundef nonnull align 1 dereferenceable(1) %ref.tmp)
          to label %.noexc unwind label %lpad

.noexc:                                           ; preds = %call.i.noexc
  invoke void @_ZNSt7__cxx1112basic_stringIcSt11char_traitsIcESaIcEE12_M_constructIPKcEEvT_S8_St20forward_iterator_tag(ptr noundef nonnull align 8 dereferenceable(32) %agg.result, ptr noundef nonnull @.str.1, ptr noundef nonnull getelementptr inbounds ([10 x i8], ptr @.str.1, i64 0, i64 9))
          to label %return unwind label %lpad.i

lpad.i:                                           ; preds = %.noexc
  %0 = landingpad { ptr, i32 }
          cleanup
  call void @_ZNSaIcED2Ev(ptr noundef nonnull align 1 dereferenceable(1) %agg.result) #19
  br label %eh.resume

lpad:                                             ; preds = %call.i.noexc, %sw.bb
  %1 = landingpad { ptr, i32 }
          cleanup
  br label %eh.resume

sw.bb1:                                           ; preds = %entry
  call void @_ZNSaIcEC1Ev(ptr noundef nonnull align 1 dereferenceable(1) %ref.tmp2) #19
  %call.i7 = invoke noundef ptr @_ZNSt7__cxx1112basic_stringIcSt11char_traitsIcESaIcEE13_M_local_dataEv(ptr noundef nonnull align 8 dereferenceable(32) %agg.result)
          to label %call.i.noexc6 unwind label %lpad3

call.i.noexc6:                                    ; preds = %sw.bb1
  invoke void @_ZNSt7__cxx1112basic_stringIcSt11char_traitsIcESaIcEE12_Alloc_hiderC1EPcRKS3_(ptr noundef nonnull align 8 dereferenceable(8) %agg.result, ptr noundef %call.i7, ptr noundef nonnull align 1 dereferenceable(1) %ref.tmp2)
          to label %.noexc8 unwind label %lpad3

.noexc8:                                          ; preds = %call.i.noexc6
  invoke void @_ZNSt7__cxx1112basic_stringIcSt11char_traitsIcESaIcEE12_M_constructIPKcEEvT_S8_St20forward_iterator_tag(ptr noundef nonnull align 8 dereferenceable(32) %agg.result, ptr noundef nonnull @.str.2, ptr noundef nonnull getelementptr inbounds ([12 x i8], ptr @.str.2, i64 0, i64 11))
          to label %return unwind label %lpad.i5

lpad.i5:                                          ; preds = %.noexc8
  %2 = landingpad { ptr, i32 }
          cleanup
  call void @_ZNSaIcED2Ev(ptr noundef nonnull align 1 dereferenceable(1) %agg.result) #19
  br label %eh.resume

lpad3:                                            ; preds = %call.i.noexc6, %sw.bb1
  %3 = landingpad { ptr, i32 }
          cleanup
  br label %eh.resume

sw.default:                                       ; preds = %entry
  tail call void @llvm.trap()
  unreachable

return:                                           ; preds = %.noexc8, %.noexc
  %ref.tmp2.sink = phi ptr [ %ref.tmp, %.noexc ], [ %ref.tmp2, %.noexc8 ]
  call void @_ZNSaIcED1Ev(ptr noundef nonnull align 1 dereferenceable(1) %ref.tmp2.sink) #19
  ret void

eh.resume:                                        ; preds = %lpad3, %lpad.i5, %lpad, %lpad.i
  %ref.tmp2.sink11 = phi ptr [ %ref.tmp, %lpad.i ], [ %ref.tmp, %lpad ], [ %ref.tmp2, %lpad.i5 ], [ %ref.tmp2, %lpad3 ]
  %.pn = phi { ptr, i32 } [ %0, %lpad.i ], [ %1, %lpad ], [ %2, %lpad.i5 ], [ %3, %lpad3 ]
  call void @_ZNSaIcED1Ev(ptr noundef nonnull align 1 dereferenceable(1) %ref.tmp2.sink11) #19
  resume { ptr, i32 } %.pn
}